target datalayout = "e-m:e-p270:32:32-p271:32:32-p272:64:64-i64:64-i128:128-f80:128-n8:16:32:64-S128"
target triple = "x86_64-pc-linux-gnu"

%"class.llvm::LinkDiagnosticInfo" = type { %"class.llvm::DiagnosticInfo.base", ptr }
%"class.llvm::DiagnosticInfo.base" = type <{ ptr, i32, i8 }>
%"class.llvm::DiagnosticInfo" = type <{ ptr, i32, i8, [3 x i8] }>

@_ZTVN4llvm18LinkDiagnosticInfoE = unnamed_addr constant { [6 x ptr] } { [6 x ptr] [ptr null, ptr null, ptr @_ZN4llvm14DiagnosticInfo6anchorEv, ptr @_ZN4llvm18LinkDiagnosticInfoD2Ev, ptr @_ZN4llvm18LinkDiagnosticInfoD0Ev, ptr @_ZNK4llvm18LinkDiagnosticInfo5printERNS_17DiagnosticPrinterE] }, align 8
@_ZTVN4llvm14DiagnosticInfoE = external unnamed_addr constant { [6 x ptr] }, align 8

; Function Attrs: mustprogress nounwind uwtable
define linkonce_odr hidden void @_ZN4llvm14DiagnosticInfoC2EiNS_18DiagnosticSeverityE(ptr noundef nonnull align 8 dereferenceable(13) %0, i32 noundef %1, i8 noundef signext %2) unnamed_addr #0 comdat align 2 {
  %4 = alloca ptr, align 8
  %5 = alloca i32, align 4
  %6 = alloca i8, align 1
  store ptr %0, ptr %4, align 8
  store i32 %1, ptr %5, align 4
  store i8 %2, ptr %6, align 1
  %7 = load ptr, ptr %4, align 8
  store ptr getelementptr inbounds inrange(-16, 32) ({ [6 x ptr] }, ptr @_ZTVN4llvm14DiagnosticInfoE, i32 0, i32 0, i32 2), ptr %7, align 8
  %8 = getelementptr inbounds nuw %"class.llvm::DiagnosticInfo", ptr %7, i32 0, i32 1
  %9 = load i32, ptr %5, align 4
  store i32 %9, ptr %8, align 8
  %10 = getelementptr inbounds nuw %"class.llvm::DiagnosticInfo", ptr %7, i32 0, i32 2
  %11 = load i8, ptr %6, align 1
  store i8 %11, ptr %10, align 4
  ret void
}

; Function Attrs: mustprogress nounwind uwtable
define dso_local void @_ZN4llvm18LinkDiagnosticInfoC2ENS_18DiagnosticSeverityERKNS_5TwineE(ptr noundef nonnull align 8 dereferenceable(24) %0, i8 noundef signext %1, ptr noundef nonnull align 8 dereferenceable(34) %2) unnamed_addr #0 align 2 {
  %4 = alloca ptr, align 8
  %5 = alloca i8, align 1
  %6 = alloca ptr, align 8
  store ptr %0, ptr %4, align 8
  store i8 %1, ptr %5, align 1
  store ptr %2, ptr %6, align 8
  %7 = load ptr, ptr %4, align 8
  %8 = load i8, ptr %5, align 1
  call void @_ZN4llvm14DiagnosticInfoC2EiNS_18DiagnosticSeverityE(ptr noundef nonnull align 8 dereferenceable(13) %7, i32 noundef 3, i8 noundef signext %8)
  store ptr getelementptr inbounds inrange(-16, 32) ({ [6 x ptr] }, ptr @_ZTVN4llvm18LinkDiagnosticInfoE, i32 0, i32 0, i32 2), ptr %7, align 8
  %9 = getelementptr inbounds nuw %"class.llvm::LinkDiagnosticInfo", ptr %7, i32 0, i32 1
  %10 = load ptr, ptr %6, align 8
  store ptr %10, ptr %9, align 8
  ret void
}