; Function Attrs: mustprogress nofree norecurse nosync nounwind willreturn memory(argmem: write) uwtable
define dso_local void @_ZN4llvm18LinkDiagnosticInfoC2ENS_18DiagnosticSeverityERKNS_5TwineE(ptr nocapture noundef nonnull writeonly align 8 dereferenceable(24) %0, i8 noundef signext %1, ptr noundef nonnull align 8 dereferenceable(34) %2) unnamed_addr #0 align 2 {
  %4 = getelementptr inbounds nuw i8, ptr %0, i64 8
  store i32 3, ptr %4, align 8
  %5 = getelementptr inbounds nuw i8, ptr %0, i64 12
  store i8 %1, ptr %5, align 4
  store ptr getelementptr inbounds inrange(-16, 32) (i8, ptr @_ZTVN4llvm18LinkDiagnosticInfoE, i64 16), ptr %0, align 8
  %6 = getelementptr inbounds nuw i8, ptr %0, i64 16
  store ptr %2, ptr %6, align 8
  ret void
}